(dp0
S'Map'
p1
(dp2
S'Players'
p3
(dp4
S'Count'
p5
I4
ssS'General'
p6
(dp7
S'Version'
p8
F0.12
sS'Name'
p9
S'Nice'
p10
sS'Description'
p11
S'The first map!'
p12
sssS'Terrain'
p13
(dp14
S'Heightmap'
p15
(dp16
S'Heightmap File'
p17
S'high.png'
p18
sS'Scale'
p19
(S'1500'
p20
S'  1500'
p21
tp22
sS'Height'
p23
I200
sS'PageSize'
p24
I2049
sS'TileSize'
p25
I129
ssS'Water'
p26
(dp27
S'Altitude'
p28
I60
sS'Type'
p29
S'Ocean'
p30
ssS'Texture'
p31
(dp32
S'Alpha Splatmaps'
p33
(S'[alphamap.png'
p34
S'  alphamap2.png]'
p35
tp36
sS'Base Texture'
p37
S'2048.png'
p38
sS'Alpha SplatTextures'
p39
(S'[terr_rock-dirt.jpg'
p40
S'  grass_1024.jpg]'
p41
tp42
ssS'Lightning'
p43
(dp44
S'Position of sun'
p45
(S'0'
p46
S'  0'
p47
S'  0'
p48
tp49
sS'Ambient'
p50
(S'64'
p51
S'  64'
p52
S'  0'
p53
tp54
sssS'Decorator'
p55
(dp56
I0
(dp57
S'rot'
p58
(F0.865066647529602
F-0.07462848722934723
F-0.07462848722934723
F-0.49042922258377075
tp59
sS'pos'
p60
(F1500.0
F10.0
F1000.0
tp61
sS'name'
p62
S'house'
p63
ssI1
(dp64
g58
(F1.0
F0.0
F0.0
F0.0
tp65
sg60
(F688.5750732421875
F135.04592895507812
F816.4053955078125
tp66
sg62
S'barrel'
p67
ssI2
(dp68
g58
(F1.0
F0.0
F0.0
F0.0
tp69
sg60
(F604.028564453125
F50.00077819824219
F1067.28076171875
tp70
sg62
S'house'
p71
ssI3
(dp72
g58
(F1.0
F0.0
F0.0
F0.0
tp73
sg60
(F1061.683837890625
F135.74636840820312
F1250.4307861328125
tp74
sg62
S'house'
p75
ssI4
(dp76
g58
(F0.5958843231201172
F0.0
F-0.8030703067779541
F0.0
tp77
sg60
(F1011.5775756835938
F64.1261978149414
F555.453125
tp78
sg62
S'tank'
p79
ssI5
(dp80
g58
(F0.8122186064720154
F0.0
F0.5833531618118286
F0.0
tp81
sg60
(F318.0741271972656
F64.1261978149414
F513.9714965820312
tp82
sg62
S'tank'
p83
ssI6
(dp84
g58
(F1.0
F0.0
F0.0
F0.0
tp85
sg60
(F668.3438110351562
F131.53724670410156
F806.3171997070312
tp86
sg62
S'rocket'
p87
ssI7
(dp88
g58
(F0.6370843052864075
F0.0
F0.770794153213501
F0.0
tp89
sg60
(F146.8806915283203
F107.71211242675781
F470.3732604980469
tp90
sg62
S'tank'
p91
ssI8
(dp92
g58
(F1.0
F0.0
F0.0
F0.0
tp93
sg60
(F960.0
F51.000762939453125
F960.0
tp94
sg62
S'robot'
p95
ssI9
(dp96
g58
(F1.0
F0.0
F0.0
F0.0
tp97
sg60
(F577.089111328125
F50.00076675415039
F872.3819580078125
tp98
sg62
S'house'
p99
ssI10
(dp100
g58
(F1.0
F0.0
F0.0
F0.0
tp101
sg60
(F667.544189453125
F50.00077438354492
F965.4118041992188
tp102
sg62
g99
ssI11
(dp103
g58
(F1.0
F0.0
F0.0
F0.0
tp104
sg60
(F597.0184936523438
F50.00075912475586
F1206.2325439453125
tp105
sg62
g99
ssI12
(dp106
g58
(F1.0
F0.0
F0.0
F0.0
tp107
sg60
(F582.431884765625
F50.000762939453125
F743.6914672851562
tp108
sg62
g99
ssI13
(dp109
g58
(F1.0
F0.0
F0.0
F0.0
tp110
sg60
(F609.9039916992188
F50.0007438659668
F1340.8797607421875
tp111
sg62
g99
ssI14
(dp112
g58
(F1.0
F0.0
F0.0
F0.0
tp113
sg60
(F570.0181274414062
F50.000736236572266
F650.2109985351562
tp114
sg62
g99
ssI15
(dp115
g58
(F1.0
F0.0
F0.0
F0.0
tp116
sg60
(F659.4249877929688
F50.000789642333984
F578.2421264648438
tp117
sg62
g99
ssI16
(dp118
g58
(F1.0
F0.0
F0.0
F0.0
tp119
sg60
(F750.1807861328125
F50.00078201293945
F575.771240234375
tp120
sg62
g99
ssI17
(dp121
g58
(F1.0
F0.0
F0.0
F0.0
tp122
sg60
(F588.7869262695312
F50.000755310058594
F1470.2532958984375
tp123
sg62
g99
ssI18
(dp124
g58
(F1.0
F0.0
F0.0
F0.0
tp125
sg60
(F864.557861328125
F50.00077819824219
F569.0645141601562
tp126
sg62
g99
ssI19
(dp127
g58
(F1.0
F0.0
F0.0
F0.0
tp128
sg60
(F557.315673828125
F50.000762939453125
F445.1197509765625
tp129
sg62
g99
ssI20
(dp130
g58
(F1.0
F0.0
F0.0
F0.0
tp131
sg60
(F550.0961303710938
F50.000762939453125
F192.00906372070312
tp132
sg62
g99
ssI21
(dp133
g58
(F1.0
F0.0
F0.0
F0.0
tp134
sg60
(F759.5899047851562
F50.00077819824219
F307.8150329589844
tp135
sg62
g99
ssI22
(dp136
g58
(F1.0
F0.0
F0.0
F0.0
tp137
sg60
(F966.82666015625
F50.00075149536133
F438.144287109375
tp138
sg62
g99
ssI23
(dp139
g58
(F1.0
F0.0
F0.0
F0.0
tp140
sg60
(F947.2501831054688
F50.0007438659668
F195.30978393554688
tp141
sg62
g99
ssI24
(dp142
g58
(F1.0
F0.0
F0.0
F0.0
tp143
sg60
(F762.7810668945312
F50.00076675415039
F73.83334350585938
tp144
sg62
g99
ssI25
(dp145
g58
(F1.0
F0.0
F0.0
F0.0
tp146
sg60
(F1207.21923828125
F82.66407012939453
F312.6585693359375
tp147
sg62
g99
sss.