(dp0
S'Map'
p1
(dp2
S'Players'
p3
(dp4
S'Count'
p5
I4
ssS'General'
p6
(dp7
S'Version'
p8
F0.12
sS'Name'
p9
S'Nice'
p10
sS'Description'
p11
S'The first map!'
p12
sssS'Terrain'
p13
(dp14
S'Heightmap'
p15
(dp16
S'Heightmap File'
p17
S'high.png'
p18
sS'Scale'
p19
(S'1500'
p20
S'  1500'
p21
tp22
sS'Height'
p23
I200
sS'Size'
p24
I1500
sS'TileSize'
p25
I129
ssS'Water'
p26
(dp27
S'Altitude'
p28
I60
sS'Type'
p29
S'Ocean'
p30
ssS'Texture'
p31
(dp32
S'Alpha Splatmaps'
p33
(S'[alphamap.png'
p34
S'  alphamap2.png]'
p35
tp36
sS'Base Texture'
p37
S'2048.png'
p38
sS'Alpha SplatTextures'
p39
(S'[terr_rock-dirt.jpg'
p40
S'  grass_1024.jpg]'
p41
tp42
ssS'Lightning'
p43
(dp44
S'Position of sun'
p45
(S'0'
p46
S'  0'
p47
S'  0'
p48
tp49
sS'Ambient'
p50
(S'64'
p51
S'  64'
p52
S'  0'
p53
tp54
sssS'Decorator'
p55
(dp56
I0
(dp57
S'rot'
p58
(F0.865066647529602
F-0.07462848722934723
F-0.07462848722934723
F-0.49042922258377075
tp59
sS'pos'
p60
(F1500.0
F10.0
F1000.0
tp61
sS'name'
p62
S'house'
p63
ssI2
(dp64
g58
(F1.0
F0.0
F0.0
F0.0
tp65
sg60
(F558.5213012695312
F135.7463836669922
F67.25004577636719
tp66
sg62
S'house'
p67
ssI3
(dp68
g58
(F1.0
F0.0
F0.0
F0.0
tp69
sg60
(F559.4193725585938
F135.74639892578125
F203.80979919433594
tp70
sg62
S'house'
p71
ssI8
(dp72
g58
(F1.0
F0.0
F0.0
F0.0
tp73
sg60
(F554.0035400390625
F135.74635314941406
F472.7524719238281
tp74
sg62
S'house'
p75
ssI9
(dp76
g58
(F1.0
F0.0
F0.0
F0.0
tp77
sg60
(F440.0464782714844
F135.7463836669922
F471.14495849609375
tp78
sg62
g75
ssI10
(dp79
g58
(F1.0
F0.0
F0.0
F0.0
tp80
sg60
(F330.522705078125
F135.74636840820312
F472.0589599609375
tp81
sg62
g75
ssI11
(dp82
g58
(F1.0
F0.0
F0.0
F0.0
tp83
sg60
(F221.98529052734375
F163.8063201904297
F471.9332580566406
tp84
sg62
g75
ssI12
(dp85
g58
(F1.0
F0.0
F0.0
F0.0
tp86
sg60
(F122.59100341796875
F166.48025512695312
F473.77618408203125
tp87
sg62
g75
ssI13
(dp88
g58
(F1.0
F0.0
F0.0
F0.0
tp89
sg60
(F28.440677642822266
F130.25856018066406
F491.5231018066406
tp90
sg62
S'tank'
p91
ssI14
(dp92
g58
(F1.0
F0.0
F0.0
F0.0
tp93
sg60
(F650.7269287109375
F135.74636840820312
F473.3931579589844
tp94
sg62
g75
ssI15
(dp95
g58
(F1.0
F0.0
F0.0
F0.0
tp96
sg60
(F758.8348999023438
F135.74636840820312
F473.5487365722656
tp97
sg62
g75
ssI16
(dp98
g58
(F1.0
F0.0
F0.0
F0.0
tp99
sg60
(F873.0618286132812
F135.746337890625
F474.31512451171875
tp100
sg62
g75
ssI17
(dp101
g58
(F1.0
F0.0
F0.0
F0.0
tp102
sg60
(F873.0422973632812
F135.74636840820312
F334.9694519042969
tp103
sg62
g75
ssI18
(dp104
g58
(F1.0
F0.0
F0.0
F0.0
tp105
sg60
(F873.0844116210938
F135.74635314941406
F196.09335327148438
tp106
sg62
g75
ssI19
(dp107
g58
(F1.0
F0.0
F0.0
F0.0
tp108
sg60
(F1109.388916015625
F136.68959045410156
F67.1181640625
tp109
sg62
g75
ssI20
(dp110
g58
(F1.0
F0.0
F0.0
F0.0
tp111
sg60
(F1110.0582275390625
F135.83428955078125
F203.07191467285156
tp112
sg62
g75
ssI21
(dp113
g58
(F1.0
F0.0
F0.0
F0.0
tp114
sg60
(F1110.4696044921875
F135.74636840820312
F340.4649353027344
tp115
sg62
g75
ssI22
(dp116
g58
(F1.0
F0.0
F0.0
F0.0
tp117
sg60
(F1110.92626953125
F135.74635314941406
F476.7056884765625
tp118
sg62
g75
ssI23
(dp119
g58
(F1.0
F0.0
F0.0
F0.0
tp120
sg60
(F1109.8701171875
F135.746337890625
F613.2261962890625
tp121
sg62
g75
ssI24
(dp122
g58
(F1.0
F0.0
F0.0
F0.0
tp123
sg60
(F988.751220703125
F135.746337890625
F701.2306518554688
tp124
sg62
g75
ssI25
(dp125
g58
(F1.0
F0.0
F0.0
F0.0
tp126
sg60
(F776.49560546875
F135.74639892578125
F613.2455444335938
tp127
sg62
g75
ssI26
(dp128
g58
(F1.0
F0.0
F0.0
F0.0
tp129
sg60
(F873.371337890625
F135.74635314941406
F838.2799072265625
tp130
sg62
g75
ssI27
(dp131
g58
(F1.0
F0.0
F0.0
F0.0
tp132
sg60
(F749.9830932617188
F135.74639892578125
F949.7893676757812
tp133
sg62
g75
ssI28
(dp134
g58
(F1.0
F0.0
F0.0
F0.0
tp135
sg60
(F653.3711547851562
F135.7463836669922
F678.054931640625
tp136
sg62
g75
ssI29
(dp137
g58
(F1.0
F0.0
F0.0
F0.0
tp138
sg60
(F630.1941528320312
F135.7463836669922
F973.3963012695312
tp139
sg62
g75
ssI30
(dp140
g58
(F1.0
F0.0
F0.0
F0.0
tp141
sg60
(F530.6942749023438
F135.74639892578125
F761.7606201171875
tp142
sg62
g75
ssI31
(dp143
g58
(F1.0
F0.0
F0.0
F0.0
tp144
sg60
(F411.42877197265625
F135.74636840820312
F900.5403442382812
tp145
sg62
g75
ssI32
(dp146
g58
(F1.0
F0.0
F0.0
F0.0
tp147
sg60
(F596.7599487304688
F135.7463836669922
F1117.9315185546875
tp148
sg62
g75
ssI33
(dp149
g58
(F1.0
F0.0
F0.0
F0.0
tp150
sg60
(F415.9336242675781
F135.74635314941406
F1034.7125244140625
tp151
sg62
g75
sss.