(dp0
S'Map'
p1
(dp2
S'Players'
p3
(dp4
S'Count'
p5
I4
ssS'General'
p6
(dp7
S'Version'
p8
F0.12
sS'Name'
p9
S'Nice'
p10
sS'Description'
p11
S'The first map!'
p12
sssS'Terrain'
p13
(dp14
S'Heightmap'
p15
(dp16
S'Heightmap File'
p17
S'high.png'
p18
sS'Scale'
p19
(S'1500'
p20
S'  1500'
p21
tp22
sS'Height'
p23
I200
sS'PageSize'
p24
I2049
sS'TileSize'
p25
I129
ssS'Water'
p26
(dp27
S'Altitude'
p28
I60
sS'Type'
p29
S'Ocean'
p30
ssS'Texture'
p31
(dp32
S'Alpha Splatmaps'
p33
(S'[alphamap.png'
p34
S'  alphamap2.png]'
p35
tp36
sS'Base Texture'
p37
S'2048.png'
p38
sS'Alpha SplatTextures'
p39
(S'[terr_rock-dirt.jpg'
p40
S'  grass_1024.jpg]'
p41
tp42
ssS'Lightning'
p43
(dp44
S'Position of sun'
p45
(S'0'
p46
S'  0'
p47
S'  0'
p48
tp49
sS'Ambient'
p50
(S'64'
p51
S'  64'
p52
S'  0'
p53
tp54
sssS'Decorator'
p55
(dp56
I0
(dp57
S'rot'
p58
(F0.865066647529602
F-0.07462848722934723
F-0.07462848722934723
F-0.49042922258377075
tp59
sS'pos'
p60
(F1500.0
F10.0
F1000.0
tp61
sS'name'
p62
S'house'
p63
ssI1
(dp64
g58
(F1.0
F0.0
F0.0
F0.0
tp65
sg60
(F688.5750732421875
F135.04592895507812
F816.4053955078125
tp66
sg62
S'barrel'
p67
ssI2
(dp68
g58
(F1.0
F0.0
F0.0
F0.0
tp69
sg60
(F604.028564453125
F50.00077819824219
F1067.28076171875
tp70
sg62
S'house'
p71
ssI3
(dp72
g58
(F0.008196928538382053
F0.0
F0.9999663829803467
F0.0
tp73
sg60
(F600.0142822265625
F205.74636840820312
F1063.5201416015625
tp74
sg62
S'house'
p75
ssI4
(dp76
g58
(F0.5958843231201172
F0.0
F-0.8030703067779541
F0.0
tp77
sg60
(F578.7156982421875
F307.1261901855469
F1032.638427734375
tp78
sg62
S'tank'
p79
ssI5
(dp80
g58
(F0.8122186064720154
F0.0
F0.5833531618118286
F0.0
tp81
sg60
(F623.0740966796875
F340.1261901855469
F1031.971435546875
tp82
sg62
S'tank'
p83
ssI6
(dp84
g58
(F1.0
F0.0
F0.0
F0.0
tp85
sg60
(F668.3438110351562
F131.53724670410156
F806.3171997070312
tp86
sg62
S'rocket'
p87
ssI7
(dp88
g58
(F-0.0011744730873033404
F0.0
F0.9999992847442627
F0.0
tp89
sg60
(F589.4280395507812
F360.71209716796875
F998.225830078125
tp90
sg62
S'tank'
p91
ssI8
(dp92
g58
(F1.0
F0.0
F0.0
F0.0
tp93
sg60
(F593.1280517578125
F370.84088134765625
F724.9235229492188
tp94
sg62
S'plane'
p95
ssI9
(dp96
g58
(F0.0563877671957016
F0.0
F0.9984089732170105
F0.0
tp97
sg60
(F604.565185546875
F451.00079345703125
F1021.757080078125
tp98
sg62
S'athene'
p99
ssI10
(dp100
g58
(F1.0
F0.0
F0.0
F0.0
tp101
sg60
(F671.6951904296875
F131.53724670410156
F795.25244140625
tp102
sg62
S'rocket'
p103
ssI11
(dp104
g58
(F1.0
F0.0
F0.0
F0.0
tp105
sg60
(F686.0303955078125
F131.5372772216797
F796.9440307617188
tp106
sg62
g103
ssI12
(dp107
g58
(F1.0
F0.0
F0.0
F0.0
tp108
sg60
(F687.7916870117188
F131.5372314453125
F831.1619873046875
tp109
sg62
g103
ssI13
(dp110
g58
(F0.9994935393333435
F0.0
F0.031821928918361664
F0.0
tp111
sg60
(F605.921875
F519.6427612304688
F1031.030517578125
tp112
sg62
g103
ssI14
(dp113
g58
(F1.0
F0.0
F0.0
F0.0
tp114
sg60
(F609.0
F505.55914306640625
F1033.6663818359375
tp115
sg62
S'barrel'
p116
sss.