(dp0
S'Map'
p1
(dp2
S'Players'
p3
(dp4
S'Count'
p5
I4
ssS'General'
p6
(dp7
S'Version'
p8
F0.12
sS'Name'
p9
S'Nice'
p10
sS'Description'
p11
S'The first map!'
p12
sssS'Terrain'
p13
(dp14
S'Heightmap'
p15
(dp16
S'TileSize'
p17
I129
sS'Heightmap File'
p18
S'high.png'
p19
sS'Scale'
p20
(S'1500'
p21
S'   1500'
p22
tp23
sS'Size'
p24
I2049
sS'Height'
p25
I200
ssS'Water'
p26
(dp27
S'Altitude'
p28
I60
sS'Type'
p29
S'None'
p30
ssS'Texture'
p31
(dp32
S'Base Texture'
p33
S'2048.png'
p34
sS'Alpha Splatmaps'
p35
(S'[alphamap.png'
p36
S'   alphamap2.png]'
p37
tp38
sS'Alpha SplatTextures'
p39
(S'[terr_rock-dirt.jpg'
p40
S'   grass_1024.jpg]'
p41
tp42
ssS'Lightning'
p43
(dp44
S'Position of sun'
p45
(S'0'
p46
S'   0'
p47
S'   0'
p48
tp49
sS'Ambient'
p50
(S'64'
p51
S'   64'
p52
S'   0'
p53
tp54
sssS'Decorator'
p55
(dp56
I8
(dp57
S'rot'
p58
(F1.0
F0.0
F0.0
F0.0
tp59
sS'pos'
p60
(F691.0661010742188
F133.2645721435547
F971.6825561523438
tp61
sS'name'
p62
S'athene'
p63
ssI1
(dp64
g58
(F0.1583210527896881
F0.0
F0.9873877167701721
F0.0
tp65
sg60
(F692.0599975585938
F153.0459442138672
F810.2112426757812
tp66
sg62
S'barrel'
p67
ssI10
(dp68
g58
(F1.0
F0.0
F0.0
F0.0
tp69
sg60
(F692.0599975585938
F135.0459442138672
F810.2112426757812
tp70
sg62
g67
ssI6
(dp71
g58
(F1.0
F0.0
F0.0
F0.0
tp72
sg60
(F689.4727783203125
F123.53726196289062
F797.9330444335938
tp73
sg62
S'rocket'
p74
ssI9
(dp75
g58
(F-0.0033192515838891268
F0.0
F0.9999944567680359
F0.0
tp76
sg60
(F699.65966796875
F133.2645721435547
F651.3683471679688
tp77
sg62
g63
sss.