(dp0
S'Map'
p1
(dp2
S'Players'
p3
(dp4
S'Count'
p5
I255
ssS'General'
p6
(dp7
S'Version'
p8
I1337
sS'Name'
p9
S'Gigantic Emptyness'
p10
sS'Description'
p11
(S'Quite empty'
p12
S' isnt it?'
p13
tp14
sssS'Terrain'
p15
(dp16
S'Heightmap'
p17
(dp18
S'TileSize'
p19
I33
sS'Heightmap File'
p20
S'Heightmap.png'
p21
sS'Scale'
p22
(S'10000'
p23
S'   10000'
p24
tp25
sS'Size'
p26
I10000
sS'Height'
p27
I300
ssS'Water'
p28
(dp29
S'Altitude'
p30
I60
sS'Type'
p31
S'Ocean'
p32
ssS'Texture'
p33
(dp34
S'Base Texture'
p35
S'2048.png'
p36
sS'Alpha Splatmaps'
p37
(S'[alphamap.png'
p38
S'     alphamap2.png]'
p39
tp40
sS'Alpha SplatTextures'
p41
(S'[terr_rock-dirt.jpg'
p42
S'     grass_1024.jpg]'
p43
tp44
ssS'Lightning'
p45
(dp46
S'Position of sun'
p47
(S'0'
p48
S'     0'
p49
S'     0'
p50
tp51
sS'Ambient'
p52
(S'64'
p53
S'     64'
p54
S'     0'
p55
tp56
sssS'Decorator'
p57
(dp58
I8
(dp59
S'rot'
p60
(F1.0
F0.0
F0.0
F0.0
tp61
sS'pos'
p62
(F4457.91259765625
F259.40087890625
F5410.1201171875
tp63
sS'name'
p64
S'house'
p65
ssI9
(dp66
g60
(F1.0
F0.0
F0.0
F0.0
tp67
sg62
(F1843.9144287109375
F216.487548828125
F900.7927856445312
tp68
sg64
S'tank'
p69
ssI10
(dp70
g60
(F1.0
F0.0
F0.0
F0.0
tp71
sg62
(F1627.496337890625
F216.48751831054688
F911.6336059570312
tp72
sg64
g69
ssI11
(dp73
g60
(F1.0
F0.0
F0.0
F0.0
tp74
sg62
(F1711.2972412109375
F230.605224609375
F1177.9273681640625
tp75
sg64
g69
sss.