(dp0
S'Units'
p1
(dp2
I0
(dp3
S'attribs'
p4
NsS'name'
p5
S'build'
p6
sS'pid'
p7
S'2'
p8
sS'pos'
p9
(F2500.0
F500.0
F1500.0
tp10
sS'ent'
p11
S'command'
p12
sS'rot'
p13
(F0.7071068286895752
F0.0
F-0.7071068286895752
F0.0
tp14
ssI1
(dp15
g4
S'HellYes'
p16
sg5
S'derrick'
p17
sg7
I-1
sg9
(F2000.0
F500.0
F1000.0
tp18
sg11
S'derrick'
p19
sg13
(F0.7071068286895752
F0.0
F-0.7071068286895752
F0.0
tp20
ssI2
(dp21
g4
S'[]'
p22
sg5
S'power'
p23
sg7
I-1
sg9
(F2634.3984375
F500.00762939453125
F961.1650390625
tp24
sg11
g23
sg13
(F0.7071068286895752
F0.0
F-0.7071068286895752
F0.0
tp25
sssS'Map'
p26
(dp27
S'Players'
p28
(dp29
S'Count'
p30
I3
ssS'General'
p31
(dp32
S'Version'
p33
F0.2
sS'Name'
p34
S'Tri'
p35
sS'Description'
p36
(S'Three players'
p37
S' three islands'
p38
tp39
sssS'Terrain'
p40
(dp41
S'Heightmap'
p42
(dp43
S'TileSize'
p44
I129
sS'Heightmap File'
p45
S'TriMapHei.png'
p46
sS'Height'
p47
I2000
sS'Size'
p48
I5000
ssS'Water'
p49
(dp50
S'Altitude'
p51
I400
sS'Type'
p52
S'Ocean'
p53
ssS'Texture'
p54
(dp55
S'Base Texture'
p56
S'TriMapTex.png'
p57
sS'Alpha Splatmaps'
p58
S'None'
p59
sS'Alpha SplatTextures'
p60
S'None'
p61
ssS'Lightning'
p62
(dp63
S'Position of sun'
p64
(S'0'
p65
S'       0'
p66
S'       0'
p67
tp68
sS'Ambient'
p69
(S'64'
p70
S'       64'
p71
S'       0'
p72
tp73
sssS'Decorator'
p74
(dp75
I0
(dp76
g13
(F0.764563798904419
F0.0
F-0.6445480585098267
F0.0
tp77
sg9
(F2850.864013671875
F497.9753723144531
F3144.574951171875
tp78
sg5
S'turret'
p79
ssI1
(dp80
g13
(F1.0
F0.0
F0.0
F0.0
tp81
sg9
(F3269.82861328125
F510.8970031738281
F2513.020751953125
tp82
sg5
S'turret'
p83
ssI2
(dp84
g13
(F1.0
F0.0
F0.0
F0.0
tp85
sg9
(F2031.43115234375
F500.00750732421875
F4258.51904296875
tp86
sg5
S'palmgroup'
p87
ssI3
(dp88
g13
(F1.0
F0.0
F0.0
F0.0
tp89
sg9
(F4056.586669921875
F500.0075378417969
F770.24072265625
tp90
sg5
S'palmgroup'
p91
ssI4
(dp92
g13
(F1.0
F0.0
F0.0
F0.0
tp93
sg9
(F4083.07373046875
F499.6624755859375
F1886.8419189453125
tp94
sg5
S'palm2'
p95
ssI5
(dp96
g13
(F1.0
F0.0
F0.0
F0.0
tp97
sg9
(F4174.1220703125
F500.00775146484375
F4102.74658203125
tp98
sg5
S'palmgroup'
p99
ssI6
(dp100
g13
(F1.0
F0.0
F0.0
F0.0
tp101
sg9
(F1677.9571533203125
F499.86358642578125
F1489.802001953125
tp102
sg5
S'palm2'
p103
ssI7
(dp104
g13
(F1.0
F0.0
F0.0
F0.0
tp105
sg9
(F4174.412109375
F500.0075988769531
F1883.0538330078125
tp106
sg5
S'palm1'
p107
ssI8
(dp108
g13
(F1.0
F0.0
F0.0
F0.0
tp109
sg9
(F1710.120849609375
F499.97723388671875
F2424.5908203125
tp110
sg5
S'palm2'
p111
ssI9
(dp112
g13
(F1.0
F0.0
F0.0
F0.0
tp113
sg9
(F1281.797119140625
F493.76806640625
F749.0020751953125
tp114
sg5
S'palm1'
p115
ssI10
(dp116
g13
(F1.0
F0.0
F0.0
F0.0
tp117
sg9
(F2507.798095703125
F500.00762939453125
F2591.21630859375
tp118
sg5
S'hut'
p119
ssI11
(dp120
g13
(F0.8650667667388916
F-0.07462849467992783
F-0.07462849467992783
F-0.4904292821884155
tp121
sg9
(F1500.0
F267.17498779296875
F1000.0
tp122
sg5
S'house'
p123
ssI12
(dp124
g13
(F1.0
F0.0
F0.0
F0.0
tp125
sg9
(F2585.83154296875
F501.51116943359375
F2630.826416015625
tp126
sg5
S'palm1'
p127
ssI13
(dp128
g13
(F0.5038567185401917
F0.0
F-0.8637872338294983
F0.0
tp129
sg9
(F2222.583740234375
F498.58941650390625
F2959.8955078125
tp130
sg5
S'turret'
p131
ssI15
(dp132
g13
(F1.0
F0.0
F0.0
F0.0
tp133
sg9
(F3302.038818359375
F499.9770812988281
F3009.002685546875
tp134
sg5
S'turret'
p135
ssI16
(dp136
g13
(F-0.38125041127204895
F0.0
F0.9244717955589294
F0.0
tp137
sg9
(F1975.6285400390625
F495.3047180175781
F2614.317138671875
tp138
sg5
S'turret'
p139
ssI18
(dp140
g13
(F1.0
F0.0
F0.0
F0.0
tp141
sg9
(F838.2874755859375
F499.9375
F1305.5640869140625
tp142
sg5
S'palm1'
p143
ssI19
(dp144
g13
(F1.0
F0.0
F0.0
F0.0
tp145
sg9
(F3267.393310546875
F500.00762939453125
F4451.06982421875
tp146
sg5
S'palm2'
p147
sss.