(dp0
S'Map'
p1
(dp2
S'Players'
p3
(dp4
S'Count'
p5
S'4'
p6
ssS'General'
p7
(dp8
S'Version'
p9
S'0.12'
p10
sS'Name'
p11
S'Nice'
p12
sS'Description'
p13
S'The first map!'
p14
sssS'Terrain'
p15
(dp16
S'Heightmap'
p17
(dp18
S'Heightmap File'
p19
S'high.png'
p20
sS'Scale'
p21
(S'1500'
p22
S'1500'
p23
tp24
sS'PageSize'
p25
I2049
sS'Height'
p26
I200
ssS'Water'
p27
(dp28
S'Altitude'
p29
I60
sS'Type'
p30
S'Ocean'
p31
ssS'Texture'
p32
(dp33
S'Alpha Splatmaps'
p34
(lp35
S'alphamap.png'
p36
aS'alphamap2.png'
p37
asS'Base Texture'
p38
S'2048.png'
p39
sS'Alpha SplatTextures'
p40
(lp41
S'terr_rock-dirt.jpg'
p42
aS'grass_1024.jpg'
p43
assS'Lightning'
p44
(dp45
S'Position of sun'
p46
(S'0'
p47
g47
g47
tp48
sS'Ambient'
p49
(S'64'
p50
S'64'
p51
g47
tp52
sssS'Decorator'
p53
(dp54
I0
(dp55
S'rot'
p56
(F0.0
F0.0
F0.0
tp57
sS'pos'
p58
(F10.0
F10.0
F10.0
tp59
sS'name'
p60
S'barrel'
p61
ssI1
(dp62
g56
(F26.033438761929574
F27.09596342144505
F21.172827113521635
tp63
sg58
(F1500.0
F10.0
F1000.0
tp64
sg60
S'house'
p65
ssI3
(dp66
g56
(F0.0
F0.0
F0.0
tp67
sg58
(F1061.683837890625
F135.74636840820312
F1250.4307861328125
tp68
sg60
S'house'
p69
ssI4
(dp70
g56
(F0.0
F0.0
F0.0
tp71
sg58
(F604.028564453125
F50.00077819824219
F1067.28076171875
tp72
sg60
g69
ssI5
(dp73
g56
(F179.999995125836
F0.0
F91.17739233758766
tp74
sg58
(F318.0741271972656
F64.1261978149414
F513.9714965820312
tp75
sg60
S'tank'
p76
ssI6
(dp77
g56
(F0.0
F0.0
F-89.87017616449157
tp78
sg58
(F1011.5775756835938
F64.1261978149414
F555.453125
tp79
sg60
g76
ssI7
(dp80
g56
(F179.999995125836
F0.0
F120.90378099228838
tp81
sg58
(F146.8806915283203
F107.71211242675781
F470.3732604980469
tp82
sg60
g76
sss.