(dp0
S'Map'
p1
(dp2
S'Players'
p3
(dp4
S'Count'
p5
I3
ssS'General'
p6
(dp7
S'Version'
p8
F0.12
sS'Name'
p9
S'Tri'
p10
sS'Description'
p11
S'TriMap'
p12
sssS'Terrain'
p13
(dp14
S'Heightmap'
p15
(dp16
S'Size'
p17
I5000
sS'Heightmap File'
p18
S'TriMapHei.png'
p19
sS'Scale'
p20
(S'512'
p21
S' 512'
p22
tp23
sS'Height'
p24
I2000
sS'TileSize'
p25
I129
ssS'Water'
p26
(dp27
S'Altitude'
p28
I400
sS'Type'
p29
S'Ocean'
p30
ssS'Texture'
p31
(dp32
S'Alpha Splatmaps'
p33
NsS'Base Texture'
p34
S'TriMapTex.png'
p35
sS'Alpha SplatTextures'
p36
NssS'Lightning'
p37
(dp38
S'Position of sun'
p39
(S'0'
p40
S'      0'
p41
S'      0'
p42
tp43
sS'Ambient'
p44
(S'64'
p45
S'      64'
p46
S'      0'
p47
tp48
sssS'Decorator'
p49
(dp50
I0
(dp51
S'rot'
p52
(F0.865066647529602
F-0.07462848722934723
F-0.07462848722934723
F-0.49042922258377075
tp53
sS'pos'
p54
(F1500.0
F10.0
F1000.0
tp55
sS'name'
p56
S'house'
p57
ssI1
(dp58
g52
(F1.0
F0.0
F0.0
F0.0
tp59
sg54
(F2507.798095703125
F500.00762939453125
F2591.21630859375
tp60
sg56
S'hut'
p61
ssI2
(dp62
g52
(F1.0
F0.0
F0.0
F0.0
tp63
sg54
(F2585.83154296875
F501.51116943359375
F2630.826416015625
tp64
sg56
S'palm1'
p65
ssI3
(dp66
g52
(F0.7675606608390808
F0.0
F0.6409763097763062
F0.0
tp67
sg54
(F2718.446044921875
F515.9771118164062
F2231.59228515625
tp68
sg56
S'turret'
p69
ssI4
(dp70
g52
(F0.5427883863449097
F0.0
F0.839869499206543
F0.0
tp71
sg54
(F2331.635986328125
F485.3470153808594
F2255.875244140625
tp72
sg56
g69
ssI5
(dp73
g52
(F0.5038567185401917
F0.0
F-0.8637872338294983
F0.0
tp74
sg54
(F2222.583740234375
F498.58941650390625
F2959.8955078125
tp75
sg56
g69
ssI6
(dp76
g52
(F-0.38125041127204895
F0.0
F0.9244717955589294
F0.0
tp77
sg54
(F1975.6285400390625
F495.3047180175781
F2614.317138671875
tp78
sg56
g69
ssI7
(dp79
g52
(F1.0
F0.0
F0.0
F0.0
tp80
sg54
(F3302.038818359375
F499.9770812988281
F3009.002685546875
tp81
sg56
g69
ssI9
(dp82
g52
(F0.537380039691925
F0.0
F0.8433402180671692
F0.0
tp83
sg54
(F1388.5408935546875
F585.7532348632812
F3476.794921875
tp84
sg56
S'house'
p85
ssI10
(dp86
g52
(F0.7103265523910522
F0.0
F-0.7038723230361938
F0.0
tp87
sg54
(F3904.482421875
F585.7532958984375
F3010.66796875
tp88
sg56
g85
ssI11
(dp89
g52
(F1.0
F0.0
F0.0
F0.0
tp90
sg54
(F3269.82861328125
F510.8970031738281
F2513.020751953125
tp91
sg56
g69
ssI12
(dp92
g52
(F0.764563798904419
F0.0
F-0.6445480585098267
F0.0
tp93
sg54
(F2850.864013671875
F497.9753723144531
F3144.574951171875
tp94
sg56
g69
ssI13
(dp95
g52
(F1.0
F0.0
F0.0
F0.0
tp96
sg54
(F4056.586669921875
F500.0075378417969
F770.24072265625
tp97
sg56
S'palmgroup'
p98
ssI14
(dp99
g52
(F1.0
F0.0
F0.0
F0.0
tp100
sg54
(F2031.43115234375
F500.00750732421875
F4258.51904296875
tp101
sg56
g98
ssI15
(dp102
g52
(F1.0
F0.0
F0.0
F0.0
tp103
sg54
(F4174.1220703125
F500.00775146484375
F4102.74658203125
tp104
sg56
g98
ssI16
(dp105
g52
(F1.0
F0.0
F0.0
F0.0
tp106
sg54
(F4083.07373046875
F499.6624755859375
F1886.8419189453125
tp107
sg56
S'palm2'
p108
ssI18
(dp109
g52
(F1.0
F0.0
F0.0
F0.0
tp110
sg54
(F4174.412109375
F500.0075988769531
F1883.0538330078125
tp111
sg56
g65
ssI19
(dp112
g52
(F1.0
F0.0
F0.0
F0.0
tp113
sg54
(F1677.9571533203125
F499.86358642578125
F1489.802001953125
tp114
sg56
g108
ssI20
(dp115
g52
(F1.0
F0.0
F0.0
F0.0
tp116
sg54
(F1281.797119140625
F493.76806640625
F749.0020751953125
tp117
sg56
g65
ssI21
(dp118
g52
(F1.0
F0.0
F0.0
F0.0
tp119
sg54
(F1710.120849609375
F499.97723388671875
F2424.5908203125
tp120
sg56
g108
ssI22
(dp121
g52
(F1.0
F0.0
F0.0
F0.0
tp122
sg54
(F838.2874755859375
F499.9375
F1305.5640869140625
tp123
sg56
g65
ssI23
(dp124
g52
(F1.0
F0.0
F0.0
F0.0
tp125
sg54
(F3267.393310546875
F500.00762939453125
F4451.06982421875
tp126
sg56
g108
sss.