(dp0
S'Units'
p1
(dp2
I0
(dp3
S'attribs'
p4
S'health=10;'
p5
sS'name'
p6
S'build'
p7
sS'pid'
p8
S'1'
p9
sS'pos'
p10
(F2531.3701171875
F500.007568359375
F1128.68603515625
tp11
sS'ent'
p12
S'command'
p13
sS'rot'
p14
(F0.9999977350234985
F0.0
F-0.002134018810465932
F0.0
tp15
ssI1
(dp16
g4
S''
p17
sg6
g7
sg8
S'2'
p18
sg10
(F3820.30419921875
F500.007568359375
F3861.865234375
tp19
sg12
g13
sg14
(F0.011003278195858002
F0.0
F-0.999939501285553
F0.0
tp20
ssI2
(dp21
g4
g17
sg6
g7
sg8
S'3'
p22
sg10
(F1138.1248779296875
F500.007568359375
F3976.0224609375
tp23
sg12
g13
sg14
(F0.0
F0.0
F1.0
F0.0
tp24
ssI3
(dp25
g4
g17
sg6
S'derrick'
p26
sg8
I-1
sg10
(F2930.29541015625
F500.007568359375
F790.134765625
tp27
sg12
g26
sg14
(F1.0
F0.0
F0.0
F0.0
tp28
ssI4
(dp29
g4
g17
sg6
g26
sg8
S'-1'
p30
sg10
(F3413.50732421875
F500.007568359375
F4091.15380859375
tp31
sg12
g26
sg14
(F1.0
F0.0
F0.0
F0.0
tp32
ssI5
(dp33
g4
g17
sg6
g26
sg8
I-1
sg10
(F1611.636474609375
F500.007568359375
F4056.360107421875
tp34
sg12
g26
sg14
(F1.0
F0.0
F0.0
F0.0
tp35
sssS'Map'
p36
(dp37
S'Players'
p38
(dp39
S'Count'
p40
I3
ssS'General'
p41
(dp42
S'Version'
p43
F0.2
sS'Name'
p44
S'Tri'
p45
sS'Description'
p46
(S'Three players'
p47
S' three islands'
p48
tp49
sssS'Terrain'
p50
(dp51
S'Heightmap'
p52
(dp53
S'Size'
p54
I5000
sS'Heightmap File'
p55
S'TriMapHei.png'
p56
sS'Height'
p57
I2000
sS'TileSize'
p58
I129
ssS'Water'
p59
(dp60
S'Altitude'
p61
I400
sS'Type'
p62
S'Ocean'
p63
ssS'Texture'
p64
(dp65
S'Alpha Splatmaps'
p66
S'None'
p67
sS'Base Texture'
p68
S'TriMapTex.png'
p69
sS'Alpha SplatTextures'
p70
S'None'
p71
ssS'Lightning'
p72
(dp73
S'Position of sun'
p74
(S'0'
p75
S'       0'
p76
S'       0'
p77
tp78
sS'Ambient'
p79
(S'64'
p80
S'       64'
p81
S'       0'
p82
tp83
sssS'Decorator'
p84
(dp85
I0
(dp86
g14
(F1.0
F0.0
F0.0
F0.0
tp87
sg10
(F2031.43115234375
F500.00750732421875
F4258.51904296875
tp88
sg6
S'palmgroup'
p89
ssI1
(dp90
g14
(F1.0
F0.0
F0.0
F0.0
tp91
sg10
(F4056.586669921875
F500.0075378417969
F770.24072265625
tp92
sg6
S'palmgroup'
p93
ssI2
(dp94
g14
(F1.0
F0.0
F0.0
F0.0
tp95
sg10
(F4083.07373046875
F499.6624755859375
F1886.8419189453125
tp96
sg6
S'palm2'
p97
ssI3
(dp98
g14
(F1.0
F0.0
F0.0
F0.0
tp99
sg10
(F4174.1220703125
F500.00775146484375
F4102.74658203125
tp100
sg6
S'palmgroup'
p101
ssI4
(dp102
g14
(F1.0
F0.0
F0.0
F0.0
tp103
sg10
(F1677.9571533203125
F499.86358642578125
F1489.802001953125
tp104
sg6
S'palm2'
p105
ssI5
(dp106
g14
(F1.0
F0.0
F0.0
F0.0
tp107
sg10
(F4174.412109375
F500.0075988769531
F1883.0538330078125
tp108
sg6
S'palm1'
p109
ssI6
(dp110
g14
(F1.0
F0.0
F0.0
F0.0
tp111
sg10
(F1710.120849609375
F499.97723388671875
F2424.5908203125
tp112
sg6
S'palm2'
p113
ssI7
(dp114
g14
(F1.0
F0.0
F0.0
F0.0
tp115
sg10
(F1281.797119140625
F493.76806640625
F749.0020751953125
tp116
sg6
S'palm1'
p117
ssI8
(dp118
g14
(F1.0
F0.0
F0.0
F0.0
tp119
sg10
(F2507.798095703125
F500.00762939453125
F2591.21630859375
tp120
sg6
S'hut'
p121
ssI9
(dp122
g14
(F1.0
F0.0
F0.0
F0.0
tp123
sg10
(F2585.83154296875
F501.51116943359375
F2630.826416015625
tp124
sg6
S'palm1'
p125
ssI10
(dp126
g14
(F1.0
F0.0
F0.0
F0.0
tp127
sg10
(F838.2874755859375
F499.9375
F1305.5640869140625
tp128
sg6
S'palm1'
p129
ssI11
(dp130
g14
(F1.0
F0.0
F0.0
F0.0
tp131
sg10
(F3267.393310546875
F500.00762939453125
F4451.06982421875
tp132
sg6
S'palm2'
p133
sss.